target datalayout = "e-m:e-p270:32:32-p271:32:32-p272:64:64-i64:64-i128:128-f80:128-n8:16:32:64-S128"
target triple = "x86_64-pc-linux-gnu"

%struct.HashJoinTableData = type { i32, i32, i32, i32, i32, %union.anon, i8, ptr, i32, i32, ptr, i32, i32, i32, i32, i8, double, double, double, ptr, ptr, i64, i64, i64, i64, i64, ptr, ptr, ptr, ptr, ptr, ptr, ptr, ptr, i64 }
%union.anon = type { ptr }
%struct.HashSkewBucket = type { i32, ptr }
%struct.MinimalTupleData = type { i32, [6 x i8], i16, i16, i8, [0 x i8] }
%struct.HashJoinTupleData = type { %union.anon.0, i32 }
%union.anon.0 = type { ptr }

; Function Attrs: inlinehint nounwind uwtable
define internal void @HeapTupleHeaderClearMatch(ptr noundef %0) #3 {
  %2 = alloca ptr, align 8
  store ptr %0, ptr %2, align 8
  %3 = load ptr, ptr %2, align 8
  %4 = getelementptr inbounds nuw %struct.MinimalTupleData, ptr %3, i32 0, i32 2
  %5 = load i16, ptr %4, align 2
  %6 = zext i16 %5 to i32
  %7 = and i32 %6, -32769
  %8 = trunc i32 %7 to i16
  store i16 %8, ptr %4, align 2
  ret void
}

; Function Attrs: nounwind uwtable
define dso_local void @ExecHashTableResetMatchFlags(ptr noundef %0) #0 {
  %2 = alloca ptr, align 8
  %3 = alloca ptr, align 8
  %4 = alloca i32, align 4
  %5 = alloca i32, align 4
  %6 = alloca ptr, align 8
  store ptr %0, ptr %2, align 8
  call void @llvm.lifetime.start.p0(i64 8, ptr %3) #9
  call void @llvm.lifetime.start.p0(i64 4, ptr %4) #9
  store i32 0, ptr %4, align 4
  br label %7

7:                                                ; preds = %32, %1
  %8 = load i32, ptr %4, align 4
  %9 = load ptr, ptr %2, align 8
  %10 = getelementptr inbounds nuw %struct.HashJoinTableData, ptr %9, i32 0, i32 0
  %11 = load i32, ptr %10, align 8
  %12 = icmp slt i32 %8, %11
  br i1 %12, label %13, label %35

13:                                               ; preds = %7
  %14 = load ptr, ptr %2, align 8
  %15 = getelementptr inbounds nuw %struct.HashJoinTableData, ptr %14, i32 0, i32 5
  %16 = load ptr, ptr %15, align 8
  %17 = load i32, ptr %4, align 4
  %18 = sext i32 %17 to i64
  %19 = getelementptr inbounds ptr, ptr %16, i64 %18
  %20 = load ptr, ptr %19, align 8
  store ptr %20, ptr %3, align 8
  br label %21

21:                                               ; preds = %27, %13
  %22 = load ptr, ptr %3, align 8
  %23 = icmp ne ptr %22, null
  br i1 %23, label %24, label %31

24:                                               ; preds = %21
  %25 = load ptr, ptr %3, align 8
  %26 = getelementptr inbounds nuw i8, ptr %25, i64 16
  call void @HeapTupleHeaderClearMatch(ptr noundef %26)
  br label %27

27:                                               ; preds = %24
  %28 = load ptr, ptr %3, align 8
  %29 = getelementptr inbounds nuw %struct.HashJoinTupleData, ptr %28, i32 0, i32 0
  %30 = load ptr, ptr %29, align 8
  store ptr %30, ptr %3, align 8
  br label %21, !llvm.loop !22

31:                                               ; preds = %21
  br label %32

32:                                               ; preds = %31
  %33 = load i32, ptr %4, align 4
  %34 = add i32 %33, 1
  store i32 %34, ptr %4, align 4
  br label %7, !llvm.loop !23

35:                                               ; preds = %7
  store i32 0, ptr %4, align 4
  br label %36

36:                                               ; preds = %71, %35
  %37 = load i32, ptr %4, align 4
  %38 = load ptr, ptr %2, align 8
  %39 = getelementptr inbounds nuw %struct.HashJoinTableData, ptr %38, i32 0, i32 9
  %40 = load i32, ptr %39, align 4
  %41 = icmp slt i32 %37, %40
  br i1 %41, label %42, label %74

42:                                               ; preds = %36
  call void @llvm.lifetime.start.p0(i64 4, ptr %5) #9
  %43 = load ptr, ptr %2, align 8
  %44 = getelementptr inbounds nuw %struct.HashJoinTableData, ptr %43, i32 0, i32 10
  %45 = load ptr, ptr %44, align 8
  %46 = load i32, ptr %4, align 4
  %47 = sext i32 %46 to i64
  %48 = getelementptr inbounds i32, ptr %45, i64 %47
  %49 = load i32, ptr %48, align 4
  store i32 %49, ptr %5, align 4
  call void @llvm.lifetime.start.p0(i64 8, ptr %6) #9
  %50 = load ptr, ptr %2, align 8
  %51 = getelementptr inbounds nuw %struct.HashJoinTableData, ptr %50, i32 0, i32 7
  %52 = load ptr, ptr %51, align 8
  %53 = load i32, ptr %5, align 4
  %54 = sext i32 %53 to i64
  %55 = getelementptr inbounds ptr, ptr %52, i64 %54
  %56 = load ptr, ptr %55, align 8
  store ptr %56, ptr %6, align 8
  %57 = load ptr, ptr %6, align 8
  %58 = getelementptr inbounds nuw %struct.HashSkewBucket, ptr %57, i32 0, i32 1
  %59 = load ptr, ptr %58, align 8
  store ptr %59, ptr %3, align 8
  br label %60

60:                                               ; preds = %66, %42
  %61 = load ptr, ptr %3, align 8
  %62 = icmp ne ptr %61, null
  br i1 %62, label %63, label %70

63:                                               ; preds = %60
  %64 = load ptr, ptr %3, align 8
  %65 = getelementptr inbounds nuw i8, ptr %64, i64 16
  call void @HeapTupleHeaderClearMatch(ptr noundef %65)
  br label %66

66:                                               ; preds = %63
  %67 = load ptr, ptr %3, align 8
  %68 = getelementptr inbounds nuw %struct.HashJoinTupleData, ptr %67, i32 0, i32 0
  %69 = load ptr, ptr %68, align 8
  store ptr %69, ptr %3, align 8
  br label %60, !llvm.loop !24

70:                                               ; preds = %60
  call void @llvm.lifetime.end.p0(i64 8, ptr %6) #9
  call void @llvm.lifetime.end.p0(i64 4, ptr %5) #9
  br label %71

71:                                               ; preds = %70
  %72 = load i32, ptr %4, align 4
  %73 = add i32 %72, 1
  store i32 %73, ptr %4, align 4
  br label %36, !llvm.loop !25

74:                                               ; preds = %36
  call void @llvm.lifetime.end.p0(i64 4, ptr %4) #9
  call void @llvm.lifetime.end.p0(i64 8, ptr %3) #9
  ret void
}