; Function Attrs: nofree norecurse nosync nounwind memory(readwrite, inaccessiblemem: none) uwtable
define dso_local void @ExecHashTableResetMatchFlags(ptr noundef readonly captures(none) %0) local_unnamed_addr #10 {
  %2 = load i32, ptr %0, align 8
  %3 = icmp sgt i32 %2, 0
  br i1 %3, label %.lr.ph26, label %.preheader

.lr.ph26:                                         ; preds = %1
  %4 = getelementptr inbounds nuw i8, ptr %0, i64 24
  br label %10

.preheader:                                       ; preds = %._crit_edge, %1
  %5 = getelementptr inbounds nuw i8, ptr %0, i64 52
  %6 = load i32, ptr %5, align 4
  %7 = icmp sgt i32 %6, 0
  br i1 %7, label %.lr.ph34, label %._crit_edge35

.lr.ph34:                                         ; preds = %.preheader
  %8 = getelementptr inbounds nuw i8, ptr %0, i64 56
  %9 = getelementptr inbounds nuw i8, ptr %0, i64 40
  br label %20

10:                                               ; preds = %.lr.ph26, %._crit_edge
  %11 = phi i32 [ %2, %.lr.ph26 ], [ %17, %._crit_edge ]
  %indvars.iv = phi i64 [ 0, %.lr.ph26 ], [ %indvars.iv.next, %._crit_edge ]
  %12 = load ptr, ptr %4, align 8
  %13 = getelementptr inbounds nuw ptr, ptr %12, i64 %indvars.iv
  %.021 = load ptr, ptr %13, align 8
  %.not2022 = icmp eq ptr %.021, null
  br i1 %.not2022, label %._crit_edge, label %.lr.ph

.lr.ph:                                           ; preds = %10, %.lr.ph
  %.023 = phi ptr [ %.0, %.lr.ph ], [ %.021, %10 ]
  %14 = getelementptr inbounds nuw i8, ptr %.023, i64 26
  %15 = load i16, ptr %14, align 2
  %16 = and i16 %15, 32767
  store i16 %16, ptr %14, align 2
  %.0 = load ptr, ptr %.023, align 8
  %.not20 = icmp eq ptr %.0, null
  br i1 %.not20, label %._crit_edge.loopexit, label %.lr.ph, !llvm.loop !30

._crit_edge.loopexit:                             ; preds = %.lr.ph
  %.pre = load i32, ptr %0, align 8
  br label %._crit_edge

._crit_edge:                                      ; preds = %._crit_edge.loopexit, %10
  %17 = phi i32 [ %.pre, %._crit_edge.loopexit ], [ %11, %10 ]
  %indvars.iv.next = add nuw nsw i64 %indvars.iv, 1
  %18 = sext i32 %17 to i64
  %19 = icmp slt i64 %indvars.iv.next, %18
  br i1 %19, label %10, label %.preheader, !llvm.loop !31

20:                                               ; preds = %.lr.ph34, %._crit_edge32
  %21 = phi i32 [ %6, %.lr.ph34 ], [ %33, %._crit_edge32 ]
  %indvars.iv37 = phi i64 [ 0, %.lr.ph34 ], [ %indvars.iv.next38, %._crit_edge32 ]
  %22 = load ptr, ptr %8, align 8
  %23 = getelementptr inbounds nuw i32, ptr %22, i64 %indvars.iv37
  %24 = load i32, ptr %23, align 4
  %25 = load ptr, ptr %9, align 8
  %26 = sext i32 %24 to i64
  %27 = getelementptr inbounds ptr, ptr %25, i64 %26
  %28 = load ptr, ptr %27, align 8
  %29 = getelementptr inbounds nuw i8, ptr %28, i64 8
  %.127 = load ptr, ptr %29, align 8
  %.not28 = icmp eq ptr %.127, null
  br i1 %.not28, label %._crit_edge32, label %.lr.ph31

.lr.ph31:                                         ; preds = %20, %.lr.ph31
  %.129 = phi ptr [ %.1, %.lr.ph31 ], [ %.127, %20 ]
  %30 = getelementptr inbounds nuw i8, ptr %.129, i64 26
  %31 = load i16, ptr %30, align 2
  %32 = and i16 %31, 32767
  store i16 %32, ptr %30, align 2
  %.1 = load ptr, ptr %.129, align 8
  %.not = icmp eq ptr %.1, null
  br i1 %.not, label %._crit_edge32.loopexit, label %.lr.ph31, !llvm.loop !32

._crit_edge32.loopexit:                           ; preds = %.lr.ph31
  %.pre40 = load i32, ptr %5, align 4
  br label %._crit_edge32

._crit_edge32:                                    ; preds = %._crit_edge32.loopexit, %20
  %33 = phi i32 [ %.pre40, %._crit_edge32.loopexit ], [ %21, %20 ]
  %indvars.iv.next38 = add nuw nsw i64 %indvars.iv37, 1
  %34 = sext i32 %33 to i64
  %35 = icmp slt i64 %indvars.iv.next38, %34
  br i1 %35, label %20, label %._crit_edge35, !llvm.loop !33

._crit_edge35:                                    ; preds = %._crit_edge32, %.preheader
  ret void
}